; Function Attrs: nounwind uwtable
define hidden i32 @Curl_cf_socks_proxy_insert_after(ptr noundef %0, ptr noundef readnone captures(none) %1) local_unnamed_addr #0 {
  %3 = alloca ptr, align 8
  call void @llvm.lifetime.start.p0(i64 8, ptr nonnull %3) #7
  %4 = call i32 @Curl_cf_create(ptr noundef nonnull %3, ptr noundef nonnull @Curl_cft_socks_proxy, ptr noundef null) #7
  %.not = icmp eq i32 %4, 0
  br i1 %.not, label %5, label %7

5:                                                ; preds = %2
  %6 = load ptr, ptr %3, align 8, !tbaa !144
  call void @Curl_conn_cf_insert_after(ptr noundef %0, ptr noundef %6) #7
  br label %7

7:                                                ; preds = %5, %2
  call void @llvm.lifetime.end.p0(i64 8, ptr nonnull %3) #7
  ret i32 %4
}